; Function Attrs: mustprogress uwtable
define void @_ZN6icu_755units21getAllConversionRatesERNS_16MaybeStackVectorINS0_18ConversionRateInfoELi8EEER10UErrorCode(ptr noundef nonnull align 8 dereferenceable(88) %result, ptr noundef nonnull align 4 dereferenceable(4) %status) local_unnamed_addr #1 personality ptr @__gxx_personality_v0 {
invoke.cont:
  %unitsBundle = alloca %"class.icu_75::LocalUResourceBundlePointer", align 8
  %sink = alloca %"class.icu_75::units::(anonymous namespace)::ConversionRateDataSink", align 8
  %call = tail call ptr @ures_openDirect_75(ptr noundef null, ptr noundef nonnull @.str, ptr noundef nonnull %status)
  store ptr %call, ptr %unitsBundle, align 8
  store ptr getelementptr inbounds ({ [6 x ptr] }, ptr @_ZTVN6icu_755units12_GLOBAL__N_122ConversionRateDataSinkE, i64 0, i32 0, i64 2), ptr %sink, align 8
  %outVector.i = getelementptr inbounds i8, ptr %sink, i64 8
  store ptr %result, ptr %outVector.i, align 8
  invoke void @ures_getAllItemsWithFallback_75(ptr noundef %call, ptr noundef nonnull @.str.1, ptr noundef nonnull align 8 dereferenceable(8) %sink, ptr noundef nonnull align 4 dereferenceable(4) %status)
          to label %invoke.cont4 unwind label %lpad1

invoke.cont4:                                     ; preds = %invoke.cont
  call void @_ZN6icu_7512ResourceSinkD2Ev(ptr noundef nonnull align 8 dereferenceable(8) %sink) #15
  %cmp.not.i = icmp eq ptr %call, null
  br i1 %cmp.not.i, label %_ZN6icu_7527LocalUResourceBundlePointerD2Ev.exit, label %if.then.i

if.then.i:                                        ; preds = %invoke.cont4
  invoke void @ures_close_75(ptr noundef nonnull %call)
          to label %_ZN6icu_7527LocalUResourceBundlePointerD2Ev.exit unwind label %terminate.lpad.i

terminate.lpad.i:                                 ; preds = %if.then.i
  %0 = landingpad { ptr, i32 }
          catch ptr null
  %1 = extractvalue { ptr, i32 } %0, 0
  call void @__clang_call_terminate(ptr %1) #17
  unreachable

_ZN6icu_7527LocalUResourceBundlePointerD2Ev.exit: ; preds = %invoke.cont4, %if.then.i
  ret void

lpad1:                                            ; preds = %invoke.cont
  %2 = landingpad { ptr, i32 }
          cleanup
  call void @_ZN6icu_7512ResourceSinkD2Ev(ptr noundef nonnull align 8 dereferenceable(8) %sink) #15
  call void @_ZN6icu_7527LocalUResourceBundlePointerD2Ev(ptr noundef nonnull align 8 dereferenceable(8) %unitsBundle) #15
  resume { ptr, i32 } %2
}